Certificate:
    Data:
        Version: 3 (0x2)
        Serial Number: 16909445670156830376 (0xeaaa6b3f367706a8)
    Signature Algorithm: sha256WithRSAEncryption
        Issuer: C=US, ST=Texas, O=ser2net, OU=test, CN=ser2net.org/emailAddress=ser2net@ser2net.org
        Validity
            Not Before: Aug  8 22:46:38 2018 GMT
            Not After : Aug  7 22:46:38 2021 GMT
        Subject: C=US, ST=Texas, O=ser2net, OU=test, CN=ser2net.org/emailAddress=ser2net@ser2net.org
        Subject Public Key Info:
            Public Key Algorithm: rsaEncryption
                Public-Key: (2048 bit)
                Modulus:
                    00:b5:a1:f3:9f:83:58:a4:1f:26:9a:a7:fc:30:fa:
                    30:79:5c:15:cd:ca:c1:88:1d:69:cf:bd:9c:b6:4b:
                    55:14:e3:9f:d7:23:61:0c:1d:af:c4:f0:94:4c:22:
                    54:c2:d1:79:36:dd:7c:cb:0a:57:55:9e:93:0a:b9:
                    e8:fc:15:8f:f9:1d:fa:0a:a4:1d:2b:c9:54:86:3f:
                    65:79:4c:77:b0:3d:5b:16:36:31:7f:99:01:00:68:
                    ed:0a:2e:e8:c2:30:c1:02:54:f1:37:a0:0c:9f:ed:
                    0d:38:4b:da:53:73:9d:7a:27:e3:a7:8f:ba:30:36:
                    12:6d:bd:c3:57:33:b9:a3:52:56:47:1b:db:d2:65:
                    b2:03:58:27:1e:c5:20:3f:52:8e:12:90:8c:b9:2b:
                    e7:f1:27:2e:8f:9c:20:e0:96:f7:5f:51:04:17:a8:
                    ad:1a:14:99:99:33:1e:72:90:f9:ed:90:db:64:f3:
                    86:15:7c:54:d0:b0:c3:f5:8c:b5:ce:ea:46:4d:07:
                    8b:17:82:38:e5:bb:f0:31:d2:f8:a4:9d:0f:59:3c:
                    14:b5:6d:58:a5:45:b9:4c:d2:61:4e:25:c8:c5:ef:
                    00:99:c7:e0:5e:3c:d9:f3:22:61:b8:db:68:01:7b:
                    b0:a4:de:95:70:b8:59:c8:87:80:c1:b3:df:a6:8c:
                    cd:b9
                Exponent: 65537 (0x10001)
        X509v3 extensions:
            X509v3 Subject Key Identifier: 
                A9:49:F9:DA:CA:5C:D3:30:F5:A5:77:40:D2:D9:89:B5:D6:90:4F:80
            X509v3 Authority Key Identifier: 
                keyid:A9:49:F9:DA:CA:5C:D3:30:F5:A5:77:40:D2:D9:89:B5:D6:90:4F:80

            X509v3 Basic Constraints: 
                CA:TRUE
    Signature Algorithm: sha256WithRSAEncryption
         60:b4:95:56:29:cb:3c:b6:00:1d:c2:3b:89:bb:95:8b:1e:b5:
         40:7d:72:7e:5d:01:09:23:a5:ee:79:ee:a1:ed:12:0e:2d:22:
         52:f1:cd:c3:09:a4:a2:c7:0b:21:82:85:70:ad:ad:92:3e:85:
         ad:7b:97:3e:f5:fd:52:0c:4b:6e:c2:4f:9c:5f:70:9c:9c:6f:
         26:12:41:bc:23:e7:d8:2e:f9:ec:cc:c7:44:66:c8:ac:7a:c2:
         d6:56:e4:29:a1:34:40:0f:15:49:c4:ae:ab:93:df:ba:21:76:
         2d:e5:81:4e:68:ab:f0:1a:92:e4:41:b6:7a:4d:08:c8:4f:33:
         33:c2:49:d7:41:38:74:ea:f9:b9:fc:92:dc:b7:97:a1:67:e2:
         50:d9:80:01:b9:6e:00:82:5b:6a:7a:87:45:21:82:87:c4:94:
         ed:ea:99:09:53:f8:11:99:03:89:09:79:f6:4f:82:0b:b0:ad:
         65:c9:3d:0d:fe:43:98:09:d1:e5:74:b9:11:1b:1e:7e:88:67:
         ff:92:c0:ed:02:34:1c:80:c9:9a:c6:29:e2:65:81:be:7f:3c:
         3e:ef:4e:5c:61:11:09:36:72:03:ad:f7:60:d1:0f:a9:44:64:
         3c:bc:48:67:bd:60:c5:31:00:ca:55:47:00:1d:69:48:12:7a:
         39:c6:f0:ec
-----BEGIN CERTIFICATE-----
MIIDwzCCAqugAwIBAgIJAOqqaz82dwaoMA0GCSqGSIb3DQEBCwUAMHgxCzAJBgNV
BAYTAlVTMQ4wDAYDVQQIDAVUZXhhczEQMA4GA1UECgwHc2VyMm5ldDENMAsGA1UE
CwwEdGVzdDEUMBIGA1UEAwwLc2VyMm5ldC5vcmcxIjAgBgkqhkiG9w0BCQEWE3Nl
cjJuZXRAc2VyMm5ldC5vcmcwHhcNMTgwODA4MjI0NjM4WhcNMjEwODA3MjI0NjM4
WjB4MQswCQYDVQQGEwJVUzEOMAwGA1UECAwFVGV4YXMxEDAOBgNVBAoMB3NlcjJu
ZXQxDTALBgNVBAsMBHRlc3QxFDASBgNVBAMMC3NlcjJuZXQub3JnMSIwIAYJKoZI
hvcNAQkBFhNzZXIybmV0QHNlcjJuZXQub3JnMIIBIjANBgkqhkiG9w0BAQEFAAOC
AQ8AMIIBCgKCAQEAtaHzn4NYpB8mmqf8MPoweVwVzcrBiB1pz72ctktVFOOf1yNh
DB2vxPCUTCJUwtF5Nt18ywpXVZ6TCrno/BWP+R36CqQdK8lUhj9leUx3sD1bFjYx
f5kBAGjtCi7owjDBAlTxN6AMn+0NOEvaU3Odeifjp4+6MDYSbb3DVzO5o1JWRxvb
0mWyA1gnHsUgP1KOEpCMuSvn8Scuj5wg4Jb3X1EEF6itGhSZmTMecpD57ZDbZPOG
FXxU0LDD9Yy1zupGTQeLF4I45bvwMdL4pJ0PWTwUtW1YpUW5TNJhTiXIxe8Amcfg
XjzZ8yJhuNtoAXuwpN6VcLhZyIeAwbPfpozNuQIDAQABo1AwTjAdBgNVHQ4EFgQU
qUn52spc0zD1pXdA0tmJtdaQT4AwHwYDVR0jBBgwFoAUqUn52spc0zD1pXdA0tmJ
tdaQT4AwDAYDVR0TBAUwAwEB/zANBgkqhkiG9w0BAQsFAAOCAQEAYLSVVinLPLYA
HcI7ibuVix61QH1yfl0BCSOl7nnuoe0SDi0iUvHNwwmkoscLIYKFcK2tkj6FrXuX
PvX9UgxLbsJPnF9wnJxvJhJBvCPn2C757MzHRGbIrHrC1lbkKaE0QA8VScSuq5Pf
uiF2LeWBTmir8BqS5EG2ek0IyE8zM8JJ10E4dOr5ufyS3LeXoWfiUNmAAbluAIJb
anqHRSGCh8SU7eqZCVP4EZkDiQl59k+CC7CtZck9Df5DmAnR5XS5ERsefohn/5LA
7QI0HIDJmsYp4mWBvn88Pu9OXGERCTZyA633YNEPqURkPLxIZ71gxTEAylVHAB1p
SBJ6Ocbw7A==
-----END CERTIFICATE-----
