Certificate:
    Data:
        Version: 3 (0x2)
        Serial Number: 16909445670156830377 (0xeaaa6b3f367706a9)
    Signature Algorithm: sha256WithRSAEncryption
        Issuer: C=US, ST=Texas, O=ser2net, OU=test, CN=ser2net.org/emailAddress=ser2net@ser2net.org
        Validity
            Not Before: Aug  8 22:47:28 2018 GMT
            Not After : Aug  8 22:47:28 2019 GMT
        Subject: C=US, ST=Texas, L=Garland, O=ser2net, OU=test, CN=ser2net.org/emailAddress=ser2net@ser2net.org
        Subject Public Key Info:
            Public Key Algorithm: rsaEncryption
                Public-Key: (2048 bit)
                Modulus:
                    00:b6:b6:b8:23:ac:c5:59:3a:22:f2:30:a2:30:df:
                    63:26:6a:7c:03:13:38:d9:a2:d2:8c:92:99:c1:84:
                    42:86:0b:22:10:b6:3c:c2:3a:29:36:22:49:c2:0f:
                    76:f6:e5:d5:77:72:29:40:94:0c:2f:c4:ea:f5:e9:
                    21:76:74:1a:1a:a2:c4:59:60:fb:1f:db:af:bf:5a:
                    ae:a5:e1:0b:a1:11:e8:13:f4:99:51:10:a1:57:cb:
                    0c:b9:10:6d:2f:65:93:e3:cc:09:c6:a2:18:61:4a:
                    f3:95:a7:c7:d2:e3:38:3a:de:af:c1:cc:2f:07:48:
                    54:d3:01:08:8d:75:33:58:b2:b4:e4:3d:fb:1f:d7:
                    a3:50:3e:a8:84:2e:66:bb:2a:16:ad:d0:5d:5a:c6:
                    83:06:f5:bc:c4:6d:d0:86:c4:e0:1e:2c:8e:67:4d:
                    f9:57:c0:74:08:39:00:24:b4:ce:50:07:c1:37:1a:
                    a8:c3:f0:f2:40:5f:a6:ff:f7:83:6b:2f:c2:8d:6f:
                    5a:5b:68:73:fe:dd:51:5c:24:da:15:67:93:01:fb:
                    fe:67:81:de:56:6e:01:a2:da:8c:49:9b:f1:46:32:
                    9a:ef:99:38:97:a8:16:16:d7:6a:0f:36:30:3e:7f:
                    19:24:b7:4a:0b:5d:c9:c7:67:1a:dc:a8:62:ef:e1:
                    52:eb
                Exponent: 65537 (0x10001)
        X509v3 extensions:
            X509v3 Basic Constraints: 
                CA:FALSE
            Netscape Comment: 
                OpenSSL Generated Certificate
            X509v3 Subject Key Identifier: 
                27:44:2A:57:8C:F8:4C:40:5D:64:AA:72:6E:F7:9F:0F:F9:E4:87:C2
            X509v3 Authority Key Identifier: 
                keyid:A9:49:F9:DA:CA:5C:D3:30:F5:A5:77:40:D2:D9:89:B5:D6:90:4F:80

    Signature Algorithm: sha256WithRSAEncryption
         8d:ed:13:ae:fe:d8:b3:1d:d4:18:b2:44:ce:19:da:7e:52:34:
         e8:d7:c2:fa:da:2a:c3:c4:8c:50:4e:6a:b2:d0:06:fe:1b:1f:
         08:31:fb:7f:68:1c:76:13:3b:0e:40:b7:20:f4:bd:a3:bf:01:
         8a:59:5f:fa:12:92:b4:76:47:8f:e5:58:ac:6f:0c:98:6e:5f:
         24:2e:3e:8a:82:25:a3:57:49:62:7d:cf:16:3b:7d:3f:c8:f4:
         93:05:97:9a:bb:c4:79:fc:36:88:2c:63:53:d9:c6:bf:aa:32:
         44:1c:47:56:2e:f5:77:93:50:f9:fb:2a:39:60:61:25:f2:d3:
         6a:6e:ff:70:e5:3a:dc:9c:2e:6c:d7:aa:3b:67:be:d3:29:09:
         b0:c4:ee:11:f7:0f:45:a4:5a:b7:99:ef:06:0c:ab:bd:54:fb:
         3a:1b:b6:b6:e9:52:c0:fc:d9:f4:65:d1:9f:c3:7e:4f:3f:88:
         68:cc:c0:a5:0d:96:a3:01:18:d4:c9:a6:a0:98:e9:c5:75:e2:
         57:3f:7e:80:a4:ce:2e:f6:d3:d3:b1:32:3b:57:92:41:83:76:
         aa:f8:a2:e1:d2:0c:c2:44:f9:66:2e:80:f5:9f:06:b6:ae:2e:
         9b:ab:a7:68:47:e3:db:cd:47:11:b4:d6:10:ff:2a:3d:d0:10:
         af:f4:aa:a0
-----BEGIN CERTIFICATE-----
MIIEATCCAumgAwIBAgIJAOqqaz82dwapMA0GCSqGSIb3DQEBCwUAMHgxCzAJBgNV
BAYTAlVTMQ4wDAYDVQQIDAVUZXhhczEQMA4GA1UECgwHc2VyMm5ldDENMAsGA1UE
CwwEdGVzdDEUMBIGA1UEAwwLc2VyMm5ldC5vcmcxIjAgBgkqhkiG9w0BCQEWE3Nl
cjJuZXRAc2VyMm5ldC5vcmcwHhcNMTgwODA4MjI0NzI4WhcNMTkwODA4MjI0NzI4
WjCBijELMAkGA1UEBhMCVVMxDjAMBgNVBAgMBVRleGFzMRAwDgYDVQQHDAdHYXJs
YW5kMRAwDgYDVQQKDAdzZXIybmV0MQ0wCwYDVQQLDAR0ZXN0MRQwEgYDVQQDDAtz
ZXIybmV0Lm9yZzEiMCAGCSqGSIb3DQEJARYTc2VyMm5ldEBzZXIybmV0Lm9yZzCC
ASIwDQYJKoZIhvcNAQEBBQADggEPADCCAQoCggEBALa2uCOsxVk6IvIwojDfYyZq
fAMTONmi0oySmcGEQoYLIhC2PMI6KTYiScIPdvbl1XdyKUCUDC/E6vXpIXZ0Ghqi
xFlg+x/br79arqXhC6ER6BP0mVEQoVfLDLkQbS9lk+PMCcaiGGFK85Wnx9LjODre
r8HMLwdIVNMBCI11M1iytOQ9+x/Xo1A+qIQuZrsqFq3QXVrGgwb1vMRt0IbE4B4s
jmdN+VfAdAg5ACS0zlAHwTcaqMPw8kBfpv/3g2svwo1vWltoc/7dUVwk2hVnkwH7
/meB3lZuAaLajEmb8UYymu+ZOJeoFhbXag82MD5/GSS3SgtdycdnGtyoYu/hUusC
AwEAAaN7MHkwCQYDVR0TBAIwADAsBglghkgBhvhCAQ0EHxYdT3BlblNTTCBHZW5l
cmF0ZWQgQ2VydGlmaWNhdGUwHQYDVR0OBBYEFCdEKleM+ExAXWSqcm73nw/55IfC
MB8GA1UdIwQYMBaAFKlJ+drKXNMw9aV3QNLZibXWkE+AMA0GCSqGSIb3DQEBCwUA
A4IBAQCN7ROu/tizHdQYskTOGdp+UjTo18L62irDxIxQTmqy0Ab+Gx8IMft/aBx2
EzsOQLcg9L2jvwGKWV/6EpK0dkeP5VisbwyYbl8kLj6KgiWjV0lifc8WO30/yPST
BZeau8R5/DaILGNT2ca/qjJEHEdWLvV3k1D5+yo5YGEl8tNqbv9w5TrcnC5s16o7
Z77TKQmwxO4R9w9FpFq3me8GDKu9VPs6G7a26VLA/Nn0ZdGfw35PP4hozMClDZaj
ARjUyaagmOnFdeJXP36ApM4u9tPTsTI7V5JBg3aq+KLh0gzCRPlmLoD1nwa2ri6b
q6doR+PbzUcRtNYQ/yo90BCv9Kqg
-----END CERTIFICATE-----
